	.file	"cstring.c"
	.text
.Ltext0:
	.cfi_sections	.debug_frame
	.file 0 "/home/echo/onix/x86_asm/29.\345\255\227\347\254\246\344\270\262\345\244\204\347\220\206" "cstring.c"
	.globl	memcpy
	.type	memcpy, @function
memcpy:
.LFB0:
	.file 1 "cstring.c"
	.loc 1 12 1
	.cfi_startproc
	pushl	%ebp
	.cfi_def_cfa_offset 8
	.cfi_offset 5, -8
	movl	%esp, %ebp
	.cfi_def_cfa_register 5
	subl	$12, %esp
	.loc 1 13 11
	movl	8(%ebp), %eax
	movl	%eax, -8(%ebp)
	.loc 1 14 17
	movl	12(%ebp), %eax
	movl	%eax, -12(%ebp)
.LBB2:
	.loc 1 15 17
	movl	$0, -4(%ebp)
	.loc 1 15 5
	jmp	.L2
.L3:
	.loc 1 17 23 discriminator 3
	movl	-12(%ebp), %edx
	movl	-4(%ebp), %eax
	addl	%edx, %eax
	.loc 1 17 13 discriminator 3
	movl	-8(%ebp), %ecx
	movl	-4(%ebp), %edx
	addl	%ecx, %edx
	.loc 1 17 23 discriminator 3
	movzbl	(%eax), %eax
	.loc 1 17 17 discriminator 3
	movb	%al, (%edx)
	.loc 1 15 36 discriminator 3
	addl	$1, -4(%ebp)
.L2:
	.loc 1 15 26 discriminator 1
	movl	-4(%ebp), %eax
	cmpl	16(%ebp), %eax
	jb	.L3
.LBE2:
	.loc 1 19 12
	movl	8(%ebp), %eax
	.loc 1 20 1
	leave
	.cfi_restore 5
	.cfi_def_cfa 4, 4
	ret
	.cfi_endproc
.LFE0:
	.size	memcpy, .-memcpy
	.globl	message
	.data
	.align 4
	.type	message, @object
	.size	message, 12
message:
	.string	"hello world"
	.globl	buffer1
	.align 4
	.type	buffer1, @object
	.size	buffer1, 12
buffer1:
	.string	"\001"
	.zero	10
	.globl	buffer2
	.bss
	.align 4
	.type	buffer2, @object
	.size	buffer2, 12
buffer2:
	.zero	12
	.section	.rodata
.LC0:
	.string	"buffer1: %d\n"
.LC1:
	.string	"buffer1: %s\n"
.LC2:
	.string	"buffer2: %s\n"
.LC3:
	.string	"ret: %d\n"
.LC4:
	.string	"p: %p, c: %c\n"
.LC5:
	.string	"not found\n"
	.text
	.globl	main
	.type	main, @function
main:
.LFB1:
	.loc 1 27 1
	.cfi_startproc
	pushl	%ebp
	.cfi_def_cfa_offset 8
	.cfi_offset 5, -8
	movl	%esp, %ebp
	.cfi_def_cfa_register 5
	subl	$8, %esp
	.loc 1 28 5
	pushl	$12
	pushl	$0
	pushl	$buffer1
	call	memset_s
	addl	$12, %esp
	.loc 1 29 36
	movzbl	buffer1, %eax
	.loc 1 29 5
	movsbl	%al, %eax
	pushl	%eax
	pushl	$.LC0
	call	printf
	addl	$8, %esp
	.loc 1 31 5
	pushl	$12
	pushl	$message
	pushl	$buffer1
	call	memcpy
	addl	$12, %esp
	.loc 1 32 5
	pushl	$12
	pushl	$message
	pushl	$buffer2
	call	memcpy_s
	addl	$12, %esp
	.loc 1 33 5
	pushl	$buffer1
	pushl	$.LC1
	call	printf
	addl	$8, %esp
	.loc 1 34 5
	pushl	$buffer2
	pushl	$.LC2
	call	printf
	addl	$8, %esp
	.loc 1 36 16
	movb	$47, buffer2+5
	.loc 1 37 15
	pushl	$12
	pushl	$buffer2
	pushl	$buffer1
	call	memcmp_s
	addl	$12, %esp
	movl	%eax, -4(%ebp)
	.loc 1 38 5
	pushl	-4(%ebp)
	pushl	$.LC3
	call	printf
	addl	$8, %esp
	.loc 1 40 15
	pushl	$12
	pushl	$119
	pushl	$buffer1
	call	memchr_s
	addl	$12, %esp
	movl	%eax, -8(%ebp)
	.loc 1 41 8
	cmpl	$0, -8(%ebp)
	je	.L6
	.loc 1 43 37
	movl	-8(%ebp), %eax
	movzbl	(%eax), %eax
	.loc 1 43 9
	movsbl	%al, %eax
	pushl	%eax
	pushl	-8(%ebp)
	pushl	$.LC4
	call	printf
	addl	$12, %esp
	jmp	.L7
.L6:
	.loc 1 47 9
	pushl	$.LC5
	call	printf
	addl	$4, %esp
.L7:
	.loc 1 50 12
	movl	$0, %eax
	.loc 1 51 1
	leave
	.cfi_restore 5
	.cfi_def_cfa 4, 4
	ret
	.cfi_endproc
.LFE1:
	.size	main, .-main
.Letext0:
	.file 2 "/usr/include/stdio.h"
	.file 3 "/usr/lib/gcc/x86_64-pc-linux-gnu/12.2.0/include/stddef.h"
	.section	.note.GNU-stack,"",@progbits
